target datalayout = "e-m:e-p270:32:32-p271:32:32-p272:64:64-i64:64-i128:128-f80:128-n8:16:32:64-S128"
target triple = "x86_64-pc-linux-gnu"

%struct.b2CosSin = type { float, float }

; Function Attrs: inlinehint nounwind uwtable
define internal float @b2UnwindLargeAngle(float noundef %0) #5 {
  %2 = alloca float, align 4
  store float %0, ptr %2, align 4, !tbaa !3
  br label %3

3:                                                ; preds = %6, %1
  %4 = load float, ptr %2, align 4, !tbaa !3
  %5 = fcmp ogt float %4, 0x400921FB60000000
  br i1 %5, label %6, label %9

6:                                                ; preds = %3
  %7 = load float, ptr %2, align 4, !tbaa !3
  %8 = fsub float %7, 0x401921FB60000000
  store float %8, ptr %2, align 4, !tbaa !3
  br label %3, !llvm.loop !18

9:                                                ; preds = %3
  br label %10

10:                                               ; preds = %13, %9
  %11 = load float, ptr %2, align 4, !tbaa !3
  %12 = fcmp olt float %11, 0xC00921FB60000000
  br i1 %12, label %13, label %16

13:                                               ; preds = %10
  %14 = load float, ptr %2, align 4, !tbaa !3
  %15 = fadd float %14, 0x401921FB60000000
  store float %15, ptr %2, align 4, !tbaa !3
  br label %10, !llvm.loop !20

16:                                               ; preds = %10
  %17 = load float, ptr %2, align 4, !tbaa !3
  ret float %17
}

; Function Attrs: nounwind uwtable
define <2 x float> @b2ComputeCosSin(float noundef %0) #2 {
  %2 = alloca %struct.b2CosSin, align 4
  %3 = alloca float, align 4
  %4 = alloca float, align 4
  %5 = alloca float, align 4
  %6 = alloca float, align 4
  %7 = alloca float, align 4
  %8 = alloca float, align 4
  %9 = alloca float, align 4
  %10 = alloca float, align 4
  %11 = alloca float, align 4
  %12 = alloca float, align 4
  %13 = alloca float, align 4
  %14 = alloca float, align 4
  %15 = alloca float, align 4
  store float %0, ptr %3, align 4, !tbaa !3
  call void @llvm.lifetime.start.p0(i64 4, ptr %4) #8
  %16 = load float, ptr %3, align 4, !tbaa !3
  %17 = call float @b2UnwindLargeAngle(float noundef %16)
  store float %17, ptr %4, align 4, !tbaa !3
  call void @llvm.lifetime.start.p0(i64 4, ptr %5) #8
  store float 0x4023BD3CE0000000, ptr %5, align 4, !tbaa !3
  call void @llvm.lifetime.start.p0(i64 4, ptr %6) #8
  %18 = load float, ptr %4, align 4, !tbaa !3
  %19 = fcmp olt float %18, 0xBFF921FB60000000
  br i1 %19, label %20, label %35

20:                                               ; preds = %1
  call void @llvm.lifetime.start.p0(i64 4, ptr %7) #8
  %21 = load float, ptr %4, align 4, !tbaa !3
  %22 = fadd float %21, 0x400921FB60000000
  store float %22, ptr %7, align 4, !tbaa !3
  call void @llvm.lifetime.start.p0(i64 4, ptr %8) #8
  %23 = load float, ptr %7, align 4, !tbaa !3
  %24 = load float, ptr %7, align 4, !tbaa !3
  %25 = fmul float %23, %24
  store float %25, ptr %8, align 4, !tbaa !3
  %26 = load float, ptr %5, align 4, !tbaa !3
  %27 = load float, ptr %8, align 4, !tbaa !3
  %28 = fmul float 4.000000e+00, %27
  %29 = fsub float %26, %28
  %30 = fneg float %29
  %31 = load float, ptr %5, align 4, !tbaa !3
  %32 = load float, ptr %8, align 4, !tbaa !3
  %33 = fadd float %31, %32
  %34 = fdiv float %30, %33
  store float %34, ptr %6, align 4, !tbaa !3
  call void @llvm.lifetime.end.p0(i64 4, ptr %8) #8
  call void @llvm.lifetime.end.p0(i64 4, ptr %7) #8
  br label %66

35:                                               ; preds = %1
  %36 = load float, ptr %4, align 4, !tbaa !3
  %37 = fcmp ogt float %36, 0x3FF921FB60000000
  br i1 %37, label %38, label %53

38:                                               ; preds = %35
  call void @llvm.lifetime.start.p0(i64 4, ptr %9) #8
  %39 = load float, ptr %4, align 4, !tbaa !3
  %40 = fsub float %39, 0x400921FB60000000
  store float %40, ptr %9, align 4, !tbaa !3
  call void @llvm.lifetime.start.p0(i64 4, ptr %10) #8
  %41 = load float, ptr %9, align 4, !tbaa !3
  %42 = load float, ptr %9, align 4, !tbaa !3
  %43 = fmul float %41, %42
  store float %43, ptr %10, align 4, !tbaa !3
  %44 = load float, ptr %5, align 4, !tbaa !3
  %45 = load float, ptr %10, align 4, !tbaa !3
  %46 = fmul float 4.000000e+00, %45
  %47 = fsub float %44, %46
  %48 = fneg float %47
  %49 = load float, ptr %5, align 4, !tbaa !3
  %50 = load float, ptr %10, align 4, !tbaa !3
  %51 = fadd float %49, %50
  %52 = fdiv float %48, %51
  store float %52, ptr %6, align 4, !tbaa !3
  call void @llvm.lifetime.end.p0(i64 4, ptr %10) #8
  call void @llvm.lifetime.end.p0(i64 4, ptr %9) #8
  br label %65

53:                                               ; preds = %35
  call void @llvm.lifetime.start.p0(i64 4, ptr %11) #8
  %54 = load float, ptr %4, align 4, !tbaa !3
  %55 = load float, ptr %4, align 4, !tbaa !3
  %56 = fmul float %54, %55
  store float %56, ptr %11, align 4, !tbaa !3
  %57 = load float, ptr %5, align 4, !tbaa !3
  %58 = load float, ptr %11, align 4, !tbaa !3
  %59 = fmul float 4.000000e+00, %58
  %60 = fsub float %57, %59
  %61 = load float, ptr %5, align 4, !tbaa !3
  %62 = load float, ptr %11, align 4, !tbaa !3
  %63 = fadd float %61, %62
  %64 = fdiv float %60, %63
  store float %64, ptr %6, align 4, !tbaa !3
  call void @llvm.lifetime.end.p0(i64 4, ptr %11) #8
  br label %65

65:                                               ; preds = %53, %38
  br label %66

66:                                               ; preds = %65, %20
  call void @llvm.lifetime.start.p0(i64 4, ptr %12) #8
  %67 = load float, ptr %4, align 4, !tbaa !3
  %68 = fcmp olt float %67, 0.000000e+00
  br i1 %68, label %69, label %86

69:                                               ; preds = %66
  call void @llvm.lifetime.start.p0(i64 4, ptr %13) #8
  %70 = load float, ptr %4, align 4, !tbaa !3
  %71 = fadd float %70, 0x400921FB60000000
  store float %71, ptr %13, align 4, !tbaa !3
  %72 = load float, ptr %13, align 4, !tbaa !3
  %73 = fmul float -1.600000e+01, %72
  %74 = load float, ptr %13, align 4, !tbaa !3
  %75 = fsub float 0x400921FB60000000, %74
  %76 = fmul float %73, %75
  %77 = load float, ptr %5, align 4, !tbaa !3
  %78 = fmul float 5.000000e+00, %77
  %79 = load float, ptr %13, align 4, !tbaa !3
  %80 = fmul float 4.000000e+00, %79
  %81 = load float, ptr %13, align 4, !tbaa !3
  %82 = fsub float 0x400921FB60000000, %81
  %83 = fmul float %80, %82
  %84 = fsub float %78, %83
  %85 = fdiv float %76, %84
  store float %85, ptr %12, align 4, !tbaa !3
  call void @llvm.lifetime.end.p0(i64 4, ptr %13) #8
  br label %101

86:                                               ; preds = %66
  %87 = load float, ptr %4, align 4, !tbaa !3
  %88 = fmul float 1.600000e+01, %87
  %89 = load float, ptr %4, align 4, !tbaa !3
  %90 = fsub float 0x400921FB60000000, %89
  %91 = fmul float %88, %90
  %92 = load float, ptr %5, align 4, !tbaa !3
  %93 = fmul float 5.000000e+00, %92
  %94 = load float, ptr %4, align 4, !tbaa !3
  %95 = fmul float 4.000000e+00, %94
  %96 = load float, ptr %4, align 4, !tbaa !3
  %97 = fsub float 0x400921FB60000000, %96
  %98 = fmul float %95, %97
  %99 = fsub float %93, %98
  %100 = fdiv float %91, %99
  store float %100, ptr %12, align 4, !tbaa !3
  br label %101

101:                                              ; preds = %86, %69
  call void @llvm.lifetime.start.p0(i64 4, ptr %14) #8
  %102 = load float, ptr %12, align 4, !tbaa !3
  %103 = load float, ptr %12, align 4, !tbaa !3
  %104 = fmul float %102, %103
  %105 = load float, ptr %6, align 4, !tbaa !3
  %106 = load float, ptr %6, align 4, !tbaa !3
  %107 = fmul float %105, %106
  %108 = fadd float %104, %107
  %109 = call float @sqrtf(float noundef %108) #8, !tbaa !13
  store float %109, ptr %14, align 4, !tbaa !3
  call void @llvm.lifetime.start.p0(i64 4, ptr %15) #8
  %110 = load float, ptr %14, align 4, !tbaa !3
  %111 = fpext float %110 to double
  %112 = fcmp ogt double %111, 0.000000e+00
  br i1 %112, label %113, label %116

113:                                              ; preds = %101
  %114 = load float, ptr %14, align 4, !tbaa !3
  %115 = fdiv float 1.000000e+00, %114
  br label %117

116:                                              ; preds = %101
  br label %117

117:                                              ; preds = %116, %113
  %118 = phi float [ %115, %113 ], [ 0.000000e+00, %116 ]
  store float %118, ptr %15, align 4, !tbaa !3
  %119 = getelementptr inbounds nuw %struct.b2CosSin, ptr %2, i32 0, i32 0
  %120 = load float, ptr %6, align 4, !tbaa !3
  %121 = load float, ptr %15, align 4, !tbaa !3
  %122 = fmul float %120, %121
  store float %122, ptr %119, align 4, !tbaa !15
  %123 = getelementptr inbounds nuw %struct.b2CosSin, ptr %2, i32 0, i32 1
  %124 = load float, ptr %12, align 4, !tbaa !3
  %125 = load float, ptr %15, align 4, !tbaa !3
  %126 = fmul float %124, %125
  store float %126, ptr %123, align 4, !tbaa !17
  call void @llvm.lifetime.end.p0(i64 4, ptr %15) #8
  call void @llvm.lifetime.end.p0(i64 4, ptr %14) #8
  call void @llvm.lifetime.end.p0(i64 4, ptr %12) #8
  call void @llvm.lifetime.end.p0(i64 4, ptr %6) #8
  call void @llvm.lifetime.end.p0(i64 4, ptr %5) #8
  call void @llvm.lifetime.end.p0(i64 4, ptr %4) #8
  %127 = load <2 x float>, ptr %2, align 4
  ret <2 x float> %127
}