; Function Attrs: nofree norecurse nosync nounwind memory(none) uwtable
define <2 x float> @b2ComputeCosSin(float noundef %0) local_unnamed_addr #3 {
  %2 = fcmp ogt float %0, 0x400921FB60000000
  br i1 %2, label %.lr.ph.i, label %.preheader.i

.preheader.i:                                     ; preds = %.lr.ph.i, %1
  %.0.lcssa.i = phi float [ %0, %1 ], [ %4, %.lr.ph.i ]
  %3 = fcmp olt float %.0.lcssa.i, 0xC00921FB60000000
  br i1 %3, label %.lr.ph7.i, label %b2UnwindLargeAngle.exit

.lr.ph.i:                                         ; preds = %1, %.lr.ph.i
  %.05.i = phi float [ %4, %.lr.ph.i ], [ %0, %1 ]
  %4 = fadd float %.05.i, 0xC01921FB60000000
  %5 = fcmp ogt float %4, 0x400921FB60000000
  br i1 %5, label %.lr.ph.i, label %.preheader.i, !llvm.loop !3

.lr.ph7.i:                                        ; preds = %.preheader.i, %.lr.ph7.i
  %.16.i = phi float [ %6, %.lr.ph7.i ], [ %.0.lcssa.i, %.preheader.i ]
  %6 = fadd float %.16.i, 0x401921FB60000000
  %7 = fcmp olt float %6, 0xC00921FB60000000
  br i1 %7, label %.lr.ph7.i, label %b2UnwindLargeAngle.exit, !llvm.loop !5

b2UnwindLargeAngle.exit:                          ; preds = %.lr.ph7.i, %.preheader.i
  %.1.lcssa.i = phi float [ %.0.lcssa.i, %.preheader.i ], [ %6, %.lr.ph7.i ]
  %8 = fcmp olt float %.1.lcssa.i, 0xBFF921FB60000000
  br i1 %8, label %9, label %15

9:                                                ; preds = %b2UnwindLargeAngle.exit
  %10 = fadd float %.1.lcssa.i, 0x400921FB60000000
  %11 = fmul float %10, %10
  %12 = fmul float %11, 4.000000e+00
  %13 = fsub float 0x4023BD3CE0000000, %12
  %14 = fneg float %13
  br label %27

15:                                               ; preds = %b2UnwindLargeAngle.exit
  %16 = fcmp ogt float %.1.lcssa.i, 0x3FF921FB60000000
  br i1 %16, label %17, label %23

17:                                               ; preds = %15
  %18 = fadd float %.1.lcssa.i, 0xC00921FB60000000
  %19 = fmul float %18, %18
  %20 = fmul float %19, 4.000000e+00
  %21 = fsub float 0x4023BD3CE0000000, %20
  %22 = fneg float %21
  br label %27

23:                                               ; preds = %15
  %24 = fmul float %.1.lcssa.i, %.1.lcssa.i
  %25 = fmul float %24, 4.000000e+00
  %26 = fsub float 0x4023BD3CE0000000, %25
  br label %27

27:                                               ; preds = %17, %23, %9
  %.sink52 = phi float [ %19, %17 ], [ %24, %23 ], [ %11, %9 ]
  %.sink = phi float [ %22, %17 ], [ %26, %23 ], [ %14, %9 ]
  %28 = fadd float %.sink52, 0x4023BD3CE0000000
  %29 = fdiv float %.sink, %28
  %30 = fcmp olt float %.1.lcssa.i, 0.000000e+00
  %31 = fmul float %.1.lcssa.i, 1.600000e+01
  %32 = fadd float %.1.lcssa.i, 0x400921FB60000000
  %33 = fmul float %32, -1.600000e+01
  %.1.lcssa.i.sink60 = select i1 %30, float %32, float %.1.lcssa.i
  %.sink58 = select i1 %30, float %33, float %31
  %34 = fsub float 0x400921FB60000000, %.1.lcssa.i.sink60
  %35 = fmul float %.sink58, %34
  %36 = fmul float %.1.lcssa.i.sink60, 4.000000e+00
  %37 = fmul float %36, %34
  %38 = fsub float 0x4048AC8C20000000, %37
  %39 = fdiv float %35, %38
  %40 = fmul float %39, %39
  %41 = fmul float %29, %29
  %42 = fadd float %41, %40
  %sqrt = tail call float @llvm.sqrt.f32(float %42)
  %43 = fcmp ogt float %42, 0.000000e+00
  %44 = fdiv float 1.000000e+00, %sqrt
  %45 = select i1 %43, float %44, float 0.000000e+00
  %46 = fmul float %29, %45
  %.sroa.0.0.vec.insert = insertelement <2 x float> poison, float %46, i64 0
  %47 = fmul float %39, %45
  %.sroa.0.4.vec.insert = insertelement <2 x float> %.sroa.0.0.vec.insert, float %47, i64 1
  ret <2 x float> %.sroa.0.4.vec.insert
}